; Function Attrs: mustprogress uwtable
define dso_local noundef range(i64 -1, 9223372036855) i64 @_ZNK4absl24synchronization_internal13KernelTimeout21InMillisecondsFromNowEv(ptr noundef nonnull readonly align 8 captures(none) dereferenceable(8) %0) local_unnamed_addr #5 align 2 {
  %2 = load i64, ptr %0, align 8, !tbaa !4
  %.not = icmp eq i64 %2, -1
  br i1 %.not, label %16, label %3

3:                                                ; preds = %1
  %4 = lshr i64 %2, 1
  %5 = and i64 %2, 1
  %6 = icmp eq i64 %5, 0
  br i1 %6, label %7, label %9

7:                                                ; preds = %3
  %8 = tail call noundef i64 @_ZN4absl19GetCurrentTimeNanosEv()
  br label %_ZNK4absl24synchronization_internal13KernelTimeout20InNanosecondsFromNowEv.exit

9:                                                ; preds = %3
  %10 = tail call noundef i64 @_ZNSt6chrono3_V212steady_clock3nowEv() #8
  br label %_ZNK4absl24synchronization_internal13KernelTimeout20InNanosecondsFromNowEv.exit

_ZNK4absl24synchronization_internal13KernelTimeout20InNanosecondsFromNowEv.exit: ; preds = %7, %9
  %.sink6 = phi i64 [ %8, %7 ], [ %10, %9 ]
  %11 = sub nsw i64 %4, %.sink6
  %12 = icmp sgt i64 %11, 9223372036853775807
  br i1 %12, label %16, label %13

13:                                               ; preds = %_ZNK4absl24synchronization_internal13KernelTimeout20InNanosecondsFromNowEv.exit
  %.sroa.speculated7.i = tail call i64 @llvm.smax.i64(i64 %11, i64 0)
  %14 = add nuw nsw i64 %.sroa.speculated7.i, 999999
  %15 = udiv i64 %14, 1000000
  br label %16

16:                                               ; preds = %13, %_ZNK4absl24synchronization_internal13KernelTimeout20InNanosecondsFromNowEv.exit, %1
  %.0 = phi i64 [ -1, %1 ], [ %15, %13 ], [ -1, %_ZNK4absl24synchronization_internal13KernelTimeout20InNanosecondsFromNowEv.exit ]
  ret i64 %.0
}